(iGymManager
GymManager
p1
(dp2
S'customers'
p3
(dp4
I10
(iCustomer
Customer
p5
(dp6
S'_Customer__joiningDate'
p7
S'aug'
p8
sS'_Customer__name'
p9
S'roopak'
p10
sS'_Customer__phoneNo'
p11
S'49059304'
p12
sS'_Customer__customerId'
p13
I10
sbssS'packages'
p14
(dp15
I11
(iPackage
Package
p16
(dp17
S'_Package__cost'
p18
I1000
sS'_Package__facilities'
p19
S'gym and training'
p20
sS'_Package__type'
p21
S'normal'
p22
sS'_Package__packageId'
p23
I11
sbssS'payments'
p24
(dp25
I10
(dp26
ssS'subscriptions'
p27
(dp28
I10
(dp29
I11
I12
sssb.